target datalayout = "e-m:e-p270:32:32-p271:32:32-p272:64:64-i64:64-i128:128-f80:128-n8:16:32:64-S128"
target triple = "x86_64-pc-linux-gnu"

; Function Attrs: nounwind uwtable
define i32 @fdt_check_prop_offset_(ptr noundef %0, i32 noundef %1) #0 {
  %3 = alloca i32, align 4
  %4 = alloca ptr, align 8
  %5 = alloca i32, align 4
  store ptr %0, ptr %4, align 8, !tbaa !3
  store i32 %1, ptr %5, align 4, !tbaa !7
  %6 = load i32, ptr %5, align 4, !tbaa !7
  %7 = icmp slt i32 %6, 0
  br i1 %7, label %18, label %8

8:                                                ; preds = %2
  %9 = load i32, ptr %5, align 4, !tbaa !7
  %10 = sext i32 %9 to i64
  %11 = urem i64 %10, 4
  %12 = icmp ne i64 %11, 0
  br i1 %12, label %18, label %13

13:                                               ; preds = %8
  %14 = load ptr, ptr %4, align 8, !tbaa !3
  %15 = load i32, ptr %5, align 4, !tbaa !7
  %16 = call i32 @fdt_next_tag(ptr noundef %14, i32 noundef %15, ptr noundef %5)
  %17 = icmp ne i32 %16, 3
  br i1 %17, label %18, label %19

18:                                               ; preds = %13, %8, %2
  store i32 -4, ptr %3, align 4
  br label %21

19:                                               ; preds = %13
  %20 = load i32, ptr %5, align 4, !tbaa !7
  store i32 %20, ptr %3, align 4
  br label %21

21:                                               ; preds = %19, %18
  %22 = load i32, ptr %3, align 4
  ret i32 %22
}