; Function Attrs: nofree norecurse nosync nounwind memory(read, argmem: readwrite, inaccessiblemem: none) uwtable
define i32 @fdt_check_prop_offset_(ptr noundef captures(address) %0, i32 noundef %1) local_unnamed_addr #3 {
  %3 = alloca i32, align 4
  %4 = and i32 %1, -2147483645
  %or.cond = icmp eq i32 %4, 0
  br i1 %or.cond, label %5, label %8

5:                                                ; preds = %2
  %6 = call i32 @fdt_next_tag(ptr noundef %0, i32 noundef %1, ptr noundef nonnull %3)
  %.not2 = icmp eq i32 %6, 3
  %7 = load i32, ptr %3, align 4
  %spec.select = select i1 %.not2, i32 %7, i32 -4
  br label %8

8:                                                ; preds = %5, %2
  %.0 = phi i32 [ -4, %2 ], [ %spec.select, %5 ]
  ret i32 %.0
}